target datalayout = "e-m:e-p270:32:32-p271:32:32-p272:64:64-i64:64-i128:128-f80:128-n8:16:32:64-S128"
target triple = "x86_64-pc-linux-gnu"

%struct._zend_refcounted_h = type { i32, %union.anon }
%union.anon = type { i32 }
%struct._zval_struct = type { %union._zend_value, %union.anon.4, %union.anon.7 }
%union._zend_value = type { i64 }
%union.anon.4 = type { i32 }
%union.anon.7 = type { i32 }
%struct._zend_fcall_info_cache = type { ptr, ptr, ptr, ptr, ptr }
%struct._zend_string = type { %struct._zend_refcounted_h, i64, i64, [1 x i8] }
%struct._php_output_buffer = type { ptr, i64, i64, i32 }
%struct._php_output_handler = type { ptr, i32, i32, i64, %struct._php_output_buffer, ptr, ptr, %union.anon.2 }
%union.anon.2 = type { ptr }
%struct._php_output_handler_user_func_t = type { %struct._zend_fcall_info, %struct._zend_fcall_info_cache, %struct._zval_struct }
%struct._zend_fcall_info = type { i64, %struct._zval_struct, ptr, ptr, ptr, i32, ptr }

; Function Attrs: alwaysinline nounwind uwtable
define internal i32 @zend_gc_delref(ptr noundef %0) #5 {
  %2 = alloca ptr, align 8
  store ptr %0, ptr %2, align 8, !tbaa !95
  %3 = load ptr, ptr %2, align 8, !tbaa !95
  %4 = getelementptr inbounds nuw %struct._zend_refcounted_h, ptr %3, i32 0, i32 0
  %5 = load i32, ptr %4, align 4, !tbaa !97
  %6 = icmp ugt i32 %5, 0
  call void @llvm.assume(i1 %6)
  br label %7

7:                                                ; preds = %1
  br label %8

8:                                                ; preds = %7
  %9 = load ptr, ptr %2, align 8, !tbaa !95
  %10 = getelementptr inbounds nuw %struct._zend_refcounted_h, ptr %9, i32 0, i32 0
  %11 = load i32, ptr %10, align 4, !tbaa !97
  %12 = add i32 %11, -1
  store i32 %12, ptr %10, align 4, !tbaa !97
  ret i32 %12
}

; Function Attrs: alwaysinline nounwind uwtable
define internal i32 @zval_gc_flags(i32 noundef %0) #5 {
  %2 = alloca i32, align 4
  store i32 %0, ptr %2, align 4, !tbaa !57
  %3 = load i32, ptr %2, align 4, !tbaa !57
  %4 = lshr i32 %3, 0
  %5 = and i32 %4, 1008
  ret i32 %5
}

; Function Attrs: alwaysinline nounwind uwtable
define internal void @zend_string_release_ex(ptr noundef %0, i1 noundef zeroext %1) #5 {
  %3 = alloca ptr, align 8
  %4 = alloca i8, align 1
  store ptr %0, ptr %3, align 8, !tbaa !56
  %5 = zext i1 %1 to i8
  store i8 %5, ptr %4, align 1, !tbaa !84
  %6 = load ptr, ptr %3, align 8, !tbaa !56
  %7 = getelementptr inbounds nuw %struct._zend_string, ptr %6, i32 0, i32 0
  %8 = getelementptr inbounds nuw %struct._zend_refcounted_h, ptr %7, i32 0, i32 1
  %9 = load i32, ptr %8, align 4, !tbaa !12
  %10 = call i32 @zval_gc_flags(i32 noundef %9)
  %11 = and i32 %10, 64
  %12 = icmp ne i32 %11, 0
  br i1 %12, label %27, label %13

13:                                               ; preds = %2
  %14 = load ptr, ptr %3, align 8, !tbaa !56
  %15 = getelementptr inbounds nuw %struct._zend_string, ptr %14, i32 0, i32 0
  %16 = call i32 @zend_gc_delref(ptr noundef %15)
  %17 = icmp eq i32 %16, 0
  br i1 %17, label %18, label %26

18:                                               ; preds = %13
  %19 = load i8, ptr %4, align 1, !tbaa !84, !range !85, !noundef !86
  %20 = trunc i8 %19 to i1
  br i1 %20, label %21, label %23

21:                                               ; preds = %18
  %22 = load ptr, ptr %3, align 8, !tbaa !56
  call void @free(ptr noundef %22) #15
  br label %25

23:                                               ; preds = %18
  %24 = load ptr, ptr %3, align 8, !tbaa !56
  call void @_efree(ptr noundef %24)
  br label %25

25:                                               ; preds = %23, %21
  br label %26

26:                                               ; preds = %25, %13
  br label %27

27:                                               ; preds = %26, %2
  ret void
}

; Function Attrs: nounwind uwtable
define dso_local void @php_output_handler_dtor(ptr noundef %0) #0 {
  %2 = alloca ptr, align 8
  store ptr %0, ptr %2, align 8, !tbaa !55
  %3 = load ptr, ptr %2, align 8, !tbaa !55
  %4 = getelementptr inbounds nuw %struct._php_output_handler, ptr %3, i32 0, i32 0
  %5 = load ptr, ptr %4, align 8, !tbaa !82
  %6 = icmp ne ptr %5, null
  br i1 %6, label %7, label %11

7:                                                ; preds = %1
  %8 = load ptr, ptr %2, align 8, !tbaa !55
  %9 = getelementptr inbounds nuw %struct._php_output_handler, ptr %8, i32 0, i32 0
  %10 = load ptr, ptr %9, align 8, !tbaa !82
  call void @zend_string_release_ex(ptr noundef %10, i1 noundef zeroext false)
  br label %11

11:                                               ; preds = %7, %1
  %12 = load ptr, ptr %2, align 8, !tbaa !55
  %13 = getelementptr inbounds nuw %struct._php_output_handler, ptr %12, i32 0, i32 4
  %14 = getelementptr inbounds nuw %struct._php_output_buffer, ptr %13, i32 0, i32 0
  %15 = load ptr, ptr %14, align 8, !tbaa !72
  %16 = icmp ne ptr %15, null
  br i1 %16, label %17, label %22

17:                                               ; preds = %11
  %18 = load ptr, ptr %2, align 8, !tbaa !55
  %19 = getelementptr inbounds nuw %struct._php_output_handler, ptr %18, i32 0, i32 4
  %20 = getelementptr inbounds nuw %struct._php_output_buffer, ptr %19, i32 0, i32 0
  %21 = load ptr, ptr %20, align 8, !tbaa !72
  call void @_efree(ptr noundef %21)
  br label %22

22:                                               ; preds = %17, %11
  %23 = load ptr, ptr %2, align 8, !tbaa !55
  %24 = getelementptr inbounds nuw %struct._php_output_handler, ptr %23, i32 0, i32 1
  %25 = load i32, ptr %24, align 8, !tbaa !65
  %26 = and i32 %25, 1
  %27 = icmp ne i32 %26, 0
  br i1 %27, label %28, label %36

28:                                               ; preds = %22
  %29 = load ptr, ptr %2, align 8, !tbaa !55
  %30 = getelementptr inbounds nuw %struct._php_output_handler, ptr %29, i32 0, i32 7
  %31 = load ptr, ptr %30, align 8, !tbaa !12
  %32 = getelementptr inbounds nuw %struct._php_output_handler_user_func_t, ptr %31, i32 0, i32 2
  call void @zval_ptr_dtor(ptr noundef %32)
  %33 = load ptr, ptr %2, align 8, !tbaa !55
  %34 = getelementptr inbounds nuw %struct._php_output_handler, ptr %33, i32 0, i32 7
  %35 = load ptr, ptr %34, align 8, !tbaa !12
  call void @_efree(ptr noundef %35)
  br label %36

36:                                               ; preds = %28, %22
  %37 = load ptr, ptr %2, align 8, !tbaa !55
  %38 = getelementptr inbounds nuw %struct._php_output_handler, ptr %37, i32 0, i32 6
  %39 = load ptr, ptr %38, align 8, !tbaa !92
  %40 = icmp ne ptr %39, null
  br i1 %40, label %41, label %53

41:                                               ; preds = %36
  %42 = load ptr, ptr %2, align 8, !tbaa !55
  %43 = getelementptr inbounds nuw %struct._php_output_handler, ptr %42, i32 0, i32 5
  %44 = load ptr, ptr %43, align 8, !tbaa !93
  %45 = icmp ne ptr %44, null
  br i1 %45, label %46, label %53

46:                                               ; preds = %41
  %47 = load ptr, ptr %2, align 8, !tbaa !55
  %48 = getelementptr inbounds nuw %struct._php_output_handler, ptr %47, i32 0, i32 6
  %49 = load ptr, ptr %48, align 8, !tbaa !92
  %50 = load ptr, ptr %2, align 8, !tbaa !55
  %51 = getelementptr inbounds nuw %struct._php_output_handler, ptr %50, i32 0, i32 5
  %52 = load ptr, ptr %51, align 8, !tbaa !93
  call void %49(ptr noundef %52)
  br label %53

53:                                               ; preds = %46, %41, %36
  %54 = load ptr, ptr %2, align 8, !tbaa !55
  call void @llvm.memset.p0.i64(ptr align 8 %54, i8 0, i64 80, i1 false)
  ret void
}