; Function Attrs: nounwind uwtable
define dso_local void @php_output_handler_dtor(ptr noundef captures(none) initializes((12, 24), (32, 56)) %0) local_unnamed_addr #0 {
  %2 = load ptr, ptr %0, align 8, !tbaa !78
  %.not = icmp eq ptr %2, null
  br i1 %.not, label %zend_string_release_ex.exit, label %3

3:                                                ; preds = %1
  %4 = getelementptr inbounds nuw i8, ptr %2, i64 4
  %5 = load i32, ptr %4, align 4, !tbaa !8
  %6 = and i32 %5, 64
  %.not.i = icmp eq i32 %6, 0
  br i1 %.not.i, label %7, label %zend_string_release_ex.exit

7:                                                ; preds = %3
  %8 = load i32, ptr %2, align 4, !tbaa !20
  %9 = icmp ne i32 %8, 0
  tail call void @llvm.assume(i1 %9)
  %10 = add i32 %8, -1
  store i32 %10, ptr %2, align 4, !tbaa !20
  %11 = icmp eq i32 %10, 0
  br i1 %11, label %12, label %zend_string_release_ex.exit

12:                                               ; preds = %7
  tail call void @_efree(ptr noundef nonnull %2) #22
  br label %zend_string_release_ex.exit

zend_string_release_ex.exit:                      ; preds = %12, %7, %3, %1
  %13 = getelementptr inbounds nuw i8, ptr %0, i64 24
  %14 = load ptr, ptr %13, align 8, !tbaa !65
  %.not15 = icmp eq ptr %14, null
  br i1 %.not15, label %16, label %15

15:                                               ; preds = %zend_string_release_ex.exit
  tail call void @_efree(ptr noundef nonnull %14) #22
  br label %16

16:                                               ; preds = %15, %zend_string_release_ex.exit
  %17 = getelementptr inbounds nuw i8, ptr %0, i64 8
  %18 = load i32, ptr %17, align 8, !tbaa !54
  %19 = and i32 %18, 1
  %.not16 = icmp eq i32 %19, 0
  br i1 %.not16, label %25, label %20

20:                                               ; preds = %16
  %21 = getelementptr inbounds nuw i8, ptr %0, i64 72
  %22 = load ptr, ptr %21, align 8, !tbaa !8
  %23 = getelementptr inbounds nuw i8, ptr %22, i64 104
  tail call void @zval_ptr_dtor(ptr noundef nonnull %23) #22
  %24 = load ptr, ptr %21, align 8, !tbaa !8
  tail call void @_efree(ptr noundef %24) #22
  br label %25

25:                                               ; preds = %20, %16
  %26 = getelementptr inbounds nuw i8, ptr %0, i64 64
  %27 = load ptr, ptr %26, align 8, !tbaa !85
  %.not17 = icmp eq ptr %27, null
  br i1 %.not17, label %32, label %28

28:                                               ; preds = %25
  %29 = getelementptr inbounds nuw i8, ptr %0, i64 56
  %30 = load ptr, ptr %29, align 8, !tbaa !86
  %.not18 = icmp eq ptr %30, null
  br i1 %.not18, label %32, label %31

31:                                               ; preds = %28
  tail call void %27(ptr noundef nonnull %30) #22
  br label %32

32:                                               ; preds = %31, %28, %25
  tail call void @llvm.memset.p0.i64(ptr noundef nonnull align 8 dereferenceable(80) %0, i8 0, i64 80, i1 false)
  ret void
}